(dp0
S'infarctTissue_proximal_row18000_col16000.png'
p1
cnumpy.core.multiarray
scalar
p2
(cnumpy
dtype
p3
(S'f8'
p4
I0
I1
tp5
Rp6
(I3
S'<'
p7
NNNI-1
I-1
I0
tp8
bS'wF\x8bi\x0e|N@'
p9
tp10
Rp11
sS'infarctTissue_distal_row4000_col18000.png'
p12
g2
(g6
S'R\xd5u\x1cFn<@'
p13
tp14
Rp15
sS'infarctTissue_proximal_row14000_col16000.png'
p16
g2
(g6
S'\x7f\xa3\x86\xba\xdb\x8dC@'
p17
tp18
Rp19
sS'infarctTissue_distal_row0_col20000.png'
p20
g2
(g6
S'\xf1\xddU\xe6\x92\xaf8@'
p21
tp22
Rp23
sS'infarctTissue_distal_row0_col12000.png'
p24
g2
(g6
S'3\x12\x81\xcfv\xdd0@'
p25
tp26
Rp27
sS'infarctTissue_distal_row4000_col4000.png'
p28
g2
(g6
S'_\x11\x88\xb8\xfe\xb77@'
p29
tp30
Rp31
sS'infarctTissue_distal_row2000_col6000.png'
p32
g2
(g6
S'\x16I\xee/\xe3\xef=@'
p33
tp34
Rp35
sS'infarctTissue_distal_row0_col14000.png'
p36
g2
(g6
S'x5\xb7\xb0\x99d6@'
p37
tp38
Rp39
sS'infarctTissue_proximal_row18000_col8000.png'
p40
g2
(g6
S't\xf5S\x8f3:M@'
p41
tp42
Rp43
sS'infarctTissue_distal_row4000_col12000.png'
p44
g2
(g6
S'o{`\xbd\xcf\xce5@'
p45
tp46
Rp47
sS'infarctTissue_proximal_row18000_col14000.png'
p48
g2
(g6
S'\x045p\xf6\xe4<J@'
p49
tp50
Rp51
sS'infarctTissue_distal_row4000_col8000.png'
p52
g2
(g6
S'\xe0 \xe6\x19\x84~8@'
p53
tp54
Rp55
sS'infarctTissue_proximal_row16000_col12000.png'
p56
g2
(g6
S'\xe2 \xce\x16%\x9eF@'
p57
tp58
Rp59
sS'infarctTissue_distal_row4000_col2000.png'
p60
g2
(g6
S'\x8d\x1b\xd7\xa1\xc5e=@'
p61
tp62
Rp63
sS'infarctTissue_proximal_row14000_col12000.png'
p64
g2
(g6
S'\xba\xa4\xc0\xe8\xef\xe7E@'
p65
tp66
Rp67
sS'infarctTissue_proximal_row16000_col18000.png'
p68
g2
(g6
S'V\xe1\x07\xfd\xad\x99H@'
p69
tp70
Rp71
sS'infarctTissue_proximal_row16000_col20000.png'
p72
g2
(g6
S'\x00\xdf\xdaf\xb1\xbfO@'
p73
tp74
Rp75
sS'infarctTissue_proximal_row14000_col10000.png'
p76
g2
(g6
S'N\x03\xb6Y!DC@'
p77
tp78
Rp79
sS'infarctTissue_proximal_row18000_col10000.png'
p80
g2
(g6
S'{\xcc\xf8\x0bs\xebI@'
p81
tp82
Rp83
sS'infarctTissue_distal_row4000_col20000.png'
p84
g2
(g6
S'\xe8\x1b\xec\xbe\x93\x9a:@'
p85
tp86
Rp87
sS'infarctTissue_distal_row4000_col6000.png'
p88
g2
(g6
S'Y\x05\x86\x81\xd7\x1dA@'
p89
tp90
Rp91
sS'infarctTissue_proximal_row16000_col10000.png'
p92
g2
(g6
S'\xb1fPQ\xedQE@'
p93
tp94
Rp95
sS'infarctTissue_distal_row2000_col10000.png'
p96
g2
(g6
S'\x92v\xf075P>@'
p97
tp98
Rp99
sS'infarctTissue_distal_row0_col18000.png'
p100
g2
(g6
S'\xdeR\xf4Q<\xd88@'
p101
tp102
Rp103
sS'infarctTissue_distal_row2000_col16000.png'
p104
g2
(g6
S'_0Y\x0f\xcfd3@'
p105
tp106
Rp107
sS'infarctTissue_distal_row2000_col18000.png'
p108
g2
(g6
S'\x86$(\xe91\x127@'
p109
tp110
Rp111
sS'infarctTissue_proximal_row16000_col8000.png'
p112
g2
(g6
S'\x16\x11U}DtA@'
p113
tp114
Rp115
sS'infarctTissue_distal_row0_col10000.png'
p116
g2
(g6
S'\xe78\xb2\xca(\x83:@'
p117
tp118
Rp119
sS'infarctTissue_distal_row4000_col14000.png'
p120
g2
(g6
S'\xaa\xe9\xc1\x13\x83\x886@'
p121
tp122
Rp123
sS'infarctTissue_proximal_row14000_col14000.png'
p124
g2
(g6
S'\xcc\xed\xb7Uq\x06D@'
p125
tp126
Rp127
sS'infarctTissue_distal_row0_col16000.png'
p128
g2
(g6
S'\x99\xff\xc8R\xd3\x993@'
p129
tp130
Rp131
sS'infarctTissue_proximal_row14000_col18000.png'
p132
g2
(g6
S'\xd0\x94\xeb\xda\xadyH@'
p133
tp134
Rp135
sS'infarctTissue_proximal_row16000_col14000.png'
p136
g2
(g6
S'z\x99\x94\xd6\xb70F@'
p137
tp138
Rp139
sS'infarctTissue_proximal_row18000_col12000.png'
p140
g2
(g6
S'\xe59Q\\\xbb\x92K@'
p141
tp142
Rp143
sS'infarctTissue_distal_row2000_col8000.png'
p144
g2
(g6
S'\xc7\xa1\xb1\xea\xe5\xbf8@'
p145
tp146
Rp147
sS'infarctTissue_proximal_row14000_col20000.png'
p148
g2
(g6
S'3G\xac~\x0f\xe7H@'
p149
tp150
Rp151
sS'infarctTissue_distal_row4000_col10000.png'
p152
g2
(g6
S'\x90\xa5\x1b|\r:5@'
p153
tp154
Rp155
sS'infarctTissue_distal_row2000_col14000.png'
p156
g2
(g6
S'\xac\x12\x8a\xdc\xf9\xbf6@'
p157
tp158
Rp159
sS'infarctTissue_distal_row2000_col20000.png'
p160
g2
(g6
S'^\xb5\x14vg\x157@'
p161
tp162
Rp163
sS'infarctTissue_proximal_row16000_col16000.png'
p164
g2
(g6
S'r\xd8~bzNF@'
p165
tp166
Rp167
s.