(lp0
S'infarctTissue_proximal_row14000_col10000.png'
p1
aS'infarctTissue_proximal_row14000_col12000.png'
p2
aS'infarctTissue_proximal_row14000_col14000.png'
p3
aS'infarctTissue_proximal_row14000_col16000.png'
p4
aS'infarctTissue_proximal_row14000_col18000.png'
p5
aS'infarctTissue_proximal_row14000_col20000.png'
p6
aS'infarctTissue_proximal_row16000_col8000.png'
p7
aS'infarctTissue_proximal_row16000_col10000.png'
p8
aS'infarctTissue_proximal_row16000_col12000.png'
p9
aS'infarctTissue_proximal_row16000_col14000.png'
p10
aS'infarctTissue_proximal_row16000_col16000.png'
p11
aS'infarctTissue_proximal_row16000_col18000.png'
p12
aS'infarctTissue_proximal_row16000_col20000.png'
p13
aS'infarctTissue_proximal_row18000_col8000.png'
p14
aS'infarctTissue_proximal_row18000_col10000.png'
p15
aS'infarctTissue_proximal_row18000_col12000.png'
p16
aS'infarctTissue_proximal_row18000_col14000.png'
p17
aS'infarctTissue_proximal_row18000_col16000.png'
p18
a.